; Function Attrs: nounwind uwtable
define noalias nonnull ptr @l_Lake_unsafeEvalConstCheck_throwUnexpectedType___rarg(ptr noundef %0, ptr noundef %1) #2 {
  %3 = load ptr, ptr @l_Lake_unsafeEvalConstCheck_throwUnexpectedType___rarg___closed__1, align 8, !tbaa !4
  %4 = tail call ptr @l_Lean_Name_toString(ptr noundef %1, i8 noundef zeroext 1, ptr noundef %3) #5
  %5 = load ptr, ptr @l_Lake_unsafeEvalConstCheck_throwUnexpectedType___rarg___closed__2, align 8, !tbaa !4
  %6 = tail call ptr @lean_string_append(ptr noundef %5, ptr noundef %4) #5
  %7 = ptrtoint ptr %4 to i64
  %8 = and i64 %7, 1
  %.not = icmp eq i64 %8, 0
  br i1 %.not, label %9, label %lean_dec.exit

9:                                                ; preds = %2
  %10 = load i32, ptr %4, align 4, !tbaa !8
  %11 = icmp sgt i32 %10, 1
  br i1 %11, label %12, label %14, !prof !11

12:                                               ; preds = %9
  %13 = add nsw i32 %10, -1
  store i32 %13, ptr %4, align 4, !tbaa !8
  br label %lean_dec.exit

14:                                               ; preds = %9
  %.not.i19 = icmp eq i32 %10, 0
  br i1 %.not.i19, label %lean_dec.exit, label %15

15:                                               ; preds = %14
  tail call void @lean_dec_ref_cold(ptr noundef nonnull %4) #5
  br label %lean_dec.exit

lean_dec.exit:                                    ; preds = %15, %14, %12, %2
  %16 = load ptr, ptr @l_Lake_unsafeEvalConstCheck_throwUnexpectedType___rarg___closed__3, align 8, !tbaa !4
  %17 = tail call ptr @lean_string_append(ptr noundef %6, ptr noundef %16) #5
  %18 = tail call ptr @l_Lean_Name_toString(ptr noundef %0, i8 noundef zeroext 1, ptr noundef %3) #5
  %19 = tail call ptr @lean_string_append(ptr noundef %17, ptr noundef %18) #5
  %20 = ptrtoint ptr %18 to i64
  %21 = and i64 %20, 1
  %.not21 = icmp eq i64 %21, 0
  br i1 %.not21, label %22, label %lean_dec.exit18

22:                                               ; preds = %lean_dec.exit
  %23 = load i32, ptr %18, align 4, !tbaa !8
  %24 = icmp sgt i32 %23, 1
  br i1 %24, label %25, label %27, !prof !11

25:                                               ; preds = %22
  %26 = add nsw i32 %23, -1
  store i32 %26, ptr %18, align 4, !tbaa !8
  br label %lean_dec.exit18

27:                                               ; preds = %22
  %.not.i = icmp eq i32 %23, 0
  br i1 %.not.i, label %lean_dec.exit18, label %28

28:                                               ; preds = %27
  tail call void @lean_dec_ref_cold(ptr noundef nonnull %18) #5
  br label %lean_dec.exit18

lean_dec.exit18:                                  ; preds = %28, %27, %25, %lean_dec.exit
  %29 = load ptr, ptr @l_Lake_unsafeEvalConstCheck_throwUnexpectedType___rarg___closed__4, align 8, !tbaa !4
  %30 = tail call ptr @lean_string_append(ptr noundef %19, ptr noundef %29) #5
  tail call void @lean_inc_heartbeat() #5
  %31 = tail call noalias ptr @mi_malloc_small(i64 noundef 16) #5
  %32 = icmp eq ptr %31, null
  br i1 %32, label %33, label %lean_alloc_ctor.exit

33:                                               ; preds = %lean_dec.exit18
  tail call void @lean_internal_panic_out_of_memory() #6
  unreachable

lean_alloc_ctor.exit:                             ; preds = %lean_dec.exit18
  %34 = getelementptr inbounds nuw i8, ptr %31, i64 4
  store i32 1, ptr %31, align 4, !tbaa !8
  store i32 65552, ptr %34, align 4
  %35 = getelementptr inbounds nuw i8, ptr %31, i64 8
  store ptr %30, ptr %35, align 8, !tbaa !4
  ret ptr %31
}